target datalayout = "e-m:e-p270:32:32-p271:32:32-p272:64:64-i64:64-i128:128-f80:128-n8:16:32:64-S128"
target triple = "x86_64-pc-linux-gnu"

%struct._ir_insn = type { %struct.anon, %union.anon.5 }
%struct.anon = type { %union.anon, %union.anon.4 }
%union.anon = type { i32 }
%union.anon.4 = type { i32 }
%union.anon.5 = type { %union._ir_val }
%union._ir_val = type { double }
%struct._ir_ctx = type { ptr, i32, i32, i32, i32, i32, i32, i32, i32, i32, i32, %struct._ir_insn, ptr, ptr, ptr, i32, i32, i32, ptr, ptr, ptr, ptr, ptr, i32, i32, i64, i32, i32, i32, i64, i32, i32, i32, i32, ptr, ptr, ptr, ptr, ptr, ptr, %union.anon.13, ptr, i32, i32, i32, i64, i32, i32, i32, ptr, ptr, ptr, ptr, %struct._ir_strtab, [61 x i32], [14 x i32] }
%union.anon.13 = type { ptr }
%struct._ir_strtab = type { ptr, i32, i32, i32, i32, ptr, i32, i32 }
%struct._ir_use_list = type { i32, i32 }

; Function Attrs: nounwind uwtable
define hidden zeroext i1 @ir_use_list_add(ptr noundef %0, i32 noundef %1, i32 noundef %2) #0 {
  %4 = alloca i1, align 1
  %5 = alloca ptr, align 8
  %6 = alloca i32, align 4
  %7 = alloca i32, align 4
  %8 = alloca ptr, align 8
  %9 = alloca i32, align 4
  store ptr %0, ptr %5, align 8
  store i32 %1, ptr %6, align 4
  store i32 %2, ptr %7, align 4
  %10 = load ptr, ptr %5, align 8
  %11 = getelementptr inbounds %struct._ir_ctx, ptr %10, i32 0, i32 13
  %12 = load ptr, ptr %11, align 8
  %13 = load i32, ptr %6, align 4
  %14 = sext i32 %13 to i64
  %15 = getelementptr inbounds %struct._ir_use_list, ptr %12, i64 %14
  store ptr %15, ptr %8, align 8
  %16 = load ptr, ptr %8, align 8
  %17 = getelementptr inbounds %struct._ir_use_list, ptr %16, i32 0, i32 0
  %18 = load i32, ptr %17, align 4
  %19 = load ptr, ptr %8, align 8
  %20 = getelementptr inbounds %struct._ir_use_list, ptr %19, i32 0, i32 1
  %21 = load i32, ptr %20, align 4
  %22 = add nsw i32 %18, %21
  store i32 %22, ptr %9, align 4
  %23 = load i32, ptr %9, align 4
  %24 = load ptr, ptr %5, align 8
  %25 = getelementptr inbounds %struct._ir_ctx, ptr %24, i32 0, i32 15
  %26 = load i32, ptr %25, align 8
  %27 = icmp slt i32 %23, %26
  br i1 %27, label %28, label %49

28:                                               ; preds = %3
  %29 = load ptr, ptr %5, align 8
  %30 = getelementptr inbounds %struct._ir_ctx, ptr %29, i32 0, i32 14
  %31 = load ptr, ptr %30, align 8
  %32 = load i32, ptr %9, align 4
  %33 = sext i32 %32 to i64
  %34 = getelementptr inbounds i32, ptr %31, i64 %33
  %35 = load i32, ptr %34, align 4
  %36 = icmp eq i32 %35, 0
  br i1 %36, label %37, label %49

37:                                               ; preds = %28
  %38 = load i32, ptr %7, align 4
  %39 = load ptr, ptr %5, align 8
  %40 = getelementptr inbounds %struct._ir_ctx, ptr %39, i32 0, i32 14
  %41 = load ptr, ptr %40, align 8
  %42 = load i32, ptr %9, align 4
  %43 = sext i32 %42 to i64
  %44 = getelementptr inbounds i32, ptr %41, i64 %43
  store i32 %38, ptr %44, align 4
  %45 = load ptr, ptr %8, align 8
  %46 = getelementptr inbounds %struct._ir_use_list, ptr %45, i32 0, i32 1
  %47 = load i32, ptr %46, align 4
  %48 = add nsw i32 %47, 1
  store i32 %48, ptr %46, align 4
  store i1 false, ptr %4, align 1
  br label %116

49:                                               ; preds = %28, %3
  %50 = load ptr, ptr %5, align 8
  %51 = getelementptr inbounds %struct._ir_ctx, ptr %50, i32 0, i32 14
  %52 = load ptr, ptr %51, align 8
  %53 = load ptr, ptr %5, align 8
  %54 = getelementptr inbounds %struct._ir_ctx, ptr %53, i32 0, i32 15
  %55 = load i32, ptr %54, align 8
  %56 = load ptr, ptr %8, align 8
  %57 = getelementptr inbounds %struct._ir_use_list, ptr %56, i32 0, i32 1
  %58 = load i32, ptr %57, align 4
  %59 = add nsw i32 %55, %58
  %60 = add nsw i32 %59, 1
  %61 = sext i32 %60 to i64
  %62 = mul i64 %61, 4
  %63 = call ptr @_erealloc(ptr noundef %52, i64 noundef %62) #14
  %64 = load ptr, ptr %5, align 8
  %65 = getelementptr inbounds %struct._ir_ctx, ptr %64, i32 0, i32 14
  store ptr %63, ptr %65, align 8
  %66 = load ptr, ptr %5, align 8
  %67 = getelementptr inbounds %struct._ir_ctx, ptr %66, i32 0, i32 14
  %68 = load ptr, ptr %67, align 8
  %69 = load ptr, ptr %5, align 8
  %70 = getelementptr inbounds %struct._ir_ctx, ptr %69, i32 0, i32 15
  %71 = load i32, ptr %70, align 8
  %72 = sext i32 %71 to i64
  %73 = getelementptr inbounds i32, ptr %68, i64 %72
  %74 = load ptr, ptr %5, align 8
  %75 = getelementptr inbounds %struct._ir_ctx, ptr %74, i32 0, i32 14
  %76 = load ptr, ptr %75, align 8
  %77 = load ptr, ptr %8, align 8
  %78 = getelementptr inbounds %struct._ir_use_list, ptr %77, i32 0, i32 0
  %79 = load i32, ptr %78, align 4
  %80 = sext i32 %79 to i64
  %81 = getelementptr inbounds i32, ptr %76, i64 %80
  %82 = load ptr, ptr %8, align 8
  %83 = getelementptr inbounds %struct._ir_use_list, ptr %82, i32 0, i32 1
  %84 = load i32, ptr %83, align 4
  %85 = sext i32 %84 to i64
  %86 = mul i64 %85, 4
  call void @llvm.memcpy.p0.p0.i64(ptr align 4 %73, ptr align 4 %81, i64 %86, i1 false)
  %87 = load ptr, ptr %5, align 8
  %88 = getelementptr inbounds %struct._ir_ctx, ptr %87, i32 0, i32 15
  %89 = load i32, ptr %88, align 8
  %90 = load ptr, ptr %8, align 8
  %91 = getelementptr inbounds %struct._ir_use_list, ptr %90, i32 0, i32 0
  store i32 %89, ptr %91, align 4
  %92 = load i32, ptr %7, align 4
  %93 = load ptr, ptr %5, align 8
  %94 = getelementptr inbounds %struct._ir_ctx, ptr %93, i32 0, i32 14
  %95 = load ptr, ptr %94, align 8
  %96 = load ptr, ptr %8, align 8
  %97 = getelementptr inbounds %struct._ir_use_list, ptr %96, i32 0, i32 0
  %98 = load i32, ptr %97, align 4
  %99 = load ptr, ptr %8, align 8
  %100 = getelementptr inbounds %struct._ir_use_list, ptr %99, i32 0, i32 1
  %101 = load i32, ptr %100, align 4
  %102 = add nsw i32 %98, %101
  %103 = sext i32 %102 to i64
  %104 = getelementptr inbounds i32, ptr %95, i64 %103
  store i32 %92, ptr %104, align 4
  %105 = load ptr, ptr %8, align 8
  %106 = getelementptr inbounds %struct._ir_use_list, ptr %105, i32 0, i32 1
  %107 = load i32, ptr %106, align 4
  %108 = add nsw i32 %107, 1
  store i32 %108, ptr %106, align 4
  %109 = load ptr, ptr %8, align 8
  %110 = getelementptr inbounds %struct._ir_use_list, ptr %109, i32 0, i32 1
  %111 = load i32, ptr %110, align 4
  %112 = load ptr, ptr %5, align 8
  %113 = getelementptr inbounds %struct._ir_ctx, ptr %112, i32 0, i32 15
  %114 = load i32, ptr %113, align 8
  %115 = add nsw i32 %114, %111
  store i32 %115, ptr %113, align 8
  store i1 true, ptr %4, align 1
  br label %116

116:                                              ; preds = %49, %37
  %117 = load i1, ptr %4, align 1
  ret i1 %117
}