; Function Attrs: nounwind uwtable
define hidden noundef zeroext i1 @ir_use_list_add(ptr nocapture noundef %0, i32 noundef %1, i32 noundef %2) local_unnamed_addr #0 {
  %4 = getelementptr inbounds i8, ptr %0, i64 72
  %5 = load ptr, ptr %4, align 8
  %6 = sext i32 %1 to i64
  %7 = getelementptr inbounds %struct._ir_use_list, ptr %5, i64 %6
  %8 = load i32, ptr %7, align 4
  %9 = getelementptr inbounds i8, ptr %7, i64 4
  %10 = load i32, ptr %9, align 4
  %11 = add nsw i32 %10, %8
  %12 = getelementptr inbounds i8, ptr %0, i64 88
  %13 = load i32, ptr %12, align 8
  %14 = icmp slt i32 %11, %13
  %15 = getelementptr inbounds i8, ptr %0, i64 80
  %16 = load ptr, ptr %15, align 8
  br i1 %14, label %17, label %._crit_edge

17:                                               ; preds = %3
  %18 = sext i32 %11 to i64
  %19 = getelementptr inbounds i32, ptr %16, i64 %18
  %20 = load i32, ptr %19, align 4
  %21 = icmp eq i32 %20, 0
  br i1 %21, label %22, label %._crit_edge

22:                                               ; preds = %17
  store i32 %2, ptr %19, align 4
  %23 = load i32, ptr %9, align 4
  %24 = add nsw i32 %23, 1
  store i32 %24, ptr %9, align 4
  br label %50

._crit_edge:                                      ; preds = %3, %17
  %25 = getelementptr inbounds i8, ptr %0, i64 80
  %26 = add i32 %10, 1
  %27 = add i32 %26, %13
  %28 = sext i32 %27 to i64
  %29 = shl nsw i64 %28, 2
  %30 = tail call ptr @_erealloc(ptr noundef %16, i64 noundef %29) #24
  store ptr %30, ptr %25, align 8
  %31 = load i32, ptr %12, align 8
  %32 = sext i32 %31 to i64
  %33 = getelementptr inbounds i32, ptr %30, i64 %32
  %34 = load i32, ptr %7, align 4
  %35 = sext i32 %34 to i64
  %36 = getelementptr inbounds i32, ptr %30, i64 %35
  %37 = load i32, ptr %9, align 4
  %38 = sext i32 %37 to i64
  %39 = shl nsw i64 %38, 2
  tail call void @llvm.memcpy.p0.p0.i64(ptr align 4 %33, ptr align 4 %36, i64 %39, i1 false)
  %40 = load i32, ptr %12, align 8
  store i32 %40, ptr %7, align 4
  %41 = load ptr, ptr %25, align 8
  %42 = load i32, ptr %9, align 4
  %43 = add nsw i32 %42, %40
  %44 = sext i32 %43 to i64
  %45 = getelementptr inbounds i32, ptr %41, i64 %44
  store i32 %2, ptr %45, align 4
  %46 = load i32, ptr %9, align 4
  %47 = add nsw i32 %46, 1
  store i32 %47, ptr %9, align 4
  %48 = load i32, ptr %12, align 8
  %49 = add nsw i32 %48, %47
  store i32 %49, ptr %12, align 8
  br label %50

50:                                               ; preds = %._crit_edge, %22
  %.0 = phi i1 [ false, %22 ], [ true, %._crit_edge ]
  ret i1 %.0
}